target datalayout = "e-m:e-p270:32:32-p271:32:32-p272:64:64-i64:64-i128:128-f80:128-n8:16:32:64-S128"
target triple = "x86_64-pc-linux-gnu"

%"struct.url::Component" = type { i32, i32 }
%"class.url::CanonOutputT" = type { ptr, ptr, i32, i32 }

; Function Attrs: mustprogress uwtable
define linkonce_odr noundef zeroext i1 @_ZN3url12CanonOutputTIcE4GrowEi(ptr noundef nonnull align 8 dereferenceable(24) %0, i32 noundef %1) #0 comdat align 2 {
  %3 = alloca i1, align 1
  %4 = alloca ptr, align 8
  %5 = alloca i32, align 4
  %6 = alloca i32, align 4
  %7 = alloca i32, align 4
  store ptr %0, ptr %4, align 8, !tbaa !10
  store i32 %1, ptr %5, align 4, !tbaa !25
  %8 = load ptr, ptr %4, align 8
  call void @llvm.lifetime.start.p0(i64 4, ptr %6) #6
  %9 = getelementptr inbounds nuw %"class.url::CanonOutputT", ptr %8, i32 0, i32 2
  %10 = load i32, ptr %9, align 8, !tbaa !31
  %11 = icmp eq i32 %10, 0
  br i1 %11, label %12, label %13

12:                                               ; preds = %2
  br label %16

13:                                               ; preds = %2
  %14 = getelementptr inbounds nuw %"class.url::CanonOutputT", ptr %8, i32 0, i32 2
  %15 = load i32, ptr %14, align 8, !tbaa !31
  br label %16

16:                                               ; preds = %13, %12
  %17 = phi i32 [ 16, %12 ], [ %15, %13 ]
  store i32 %17, ptr %6, align 4, !tbaa !25
  br label %18

18:                                               ; preds = %25, %16
  %19 = load i32, ptr %6, align 4, !tbaa !25
  %20 = icmp sge i32 %19, 1073741824
  br i1 %20, label %21, label %22

21:                                               ; preds = %18
  store i1 false, ptr %3, align 1
  store i32 1, ptr %7, align 4
  br label %37

22:                                               ; preds = %18
  %23 = load i32, ptr %6, align 4, !tbaa !25
  %24 = mul nsw i32 %23, 2
  store i32 %24, ptr %6, align 4, !tbaa !25
  br label %25

25:                                               ; preds = %22
  %26 = load i32, ptr %6, align 4, !tbaa !25
  %27 = getelementptr inbounds nuw %"class.url::CanonOutputT", ptr %8, i32 0, i32 2
  %28 = load i32, ptr %27, align 8, !tbaa !31
  %29 = load i32, ptr %5, align 4, !tbaa !25
  %30 = add nsw i32 %28, %29
  %31 = icmp slt i32 %26, %30
  br i1 %31, label %18, label %32, !llvm.loop !33

32:                                               ; preds = %25
  %33 = load i32, ptr %6, align 4, !tbaa !25
  %34 = load ptr, ptr %8, align 8, !tbaa !34
  %35 = getelementptr inbounds ptr, ptr %34, i64 2
  %36 = load ptr, ptr %35, align 8
  call void %36(ptr noundef nonnull align 8 dereferenceable(24) %8, i32 noundef %33)
  store i1 true, ptr %3, align 1
  store i32 1, ptr %7, align 4
  br label %37

37:                                               ; preds = %32, %21
  call void @llvm.lifetime.end.p0(i64 4, ptr %6) #6
  %38 = load i1, ptr %3, align 1
  ret i1 %38
}

; Function Attrs: mustprogress uwtable
define linkonce_odr void @_ZN3url12CanonOutputTIcE9push_backEc(ptr noundef nonnull align 8 dereferenceable(24) %0, i8 noundef signext %1) #0 comdat align 2 {
  %3 = alloca ptr, align 8
  %4 = alloca i8, align 1
  store ptr %0, ptr %3, align 8, !tbaa !10
  store i8 %1, ptr %4, align 1, !tbaa !18
  %5 = load ptr, ptr %3, align 8
  %6 = getelementptr inbounds nuw %"class.url::CanonOutputT", ptr %5, i32 0, i32 3
  %7 = load i32, ptr %6, align 4, !tbaa !29
  %8 = getelementptr inbounds nuw %"class.url::CanonOutputT", ptr %5, i32 0, i32 2
  %9 = load i32, ptr %8, align 8, !tbaa !31
  %10 = icmp slt i32 %7, %9
  br i1 %10, label %11, label %22

11:                                               ; preds = %2
  %12 = load i8, ptr %4, align 1, !tbaa !18
  %13 = getelementptr inbounds nuw %"class.url::CanonOutputT", ptr %5, i32 0, i32 1
  %14 = load ptr, ptr %13, align 8, !tbaa !32
  %15 = getelementptr inbounds nuw %"class.url::CanonOutputT", ptr %5, i32 0, i32 3
  %16 = load i32, ptr %15, align 4, !tbaa !29
  %17 = sext i32 %16 to i64
  %18 = getelementptr inbounds i8, ptr %14, i64 %17
  store i8 %12, ptr %18, align 1, !tbaa !18
  %19 = getelementptr inbounds nuw %"class.url::CanonOutputT", ptr %5, i32 0, i32 3
  %20 = load i32, ptr %19, align 4, !tbaa !29
  %21 = add nsw i32 %20, 1
  store i32 %21, ptr %19, align 4, !tbaa !29
  br label %36

22:                                               ; preds = %2
  %23 = call noundef zeroext i1 @_ZN3url12CanonOutputTIcE4GrowEi(ptr noundef nonnull align 8 dereferenceable(24) %5, i32 noundef 1)
  br i1 %23, label %25, label %24

24:                                               ; preds = %22
  br label %36

25:                                               ; preds = %22
  %26 = load i8, ptr %4, align 1, !tbaa !18
  %27 = getelementptr inbounds nuw %"class.url::CanonOutputT", ptr %5, i32 0, i32 1
  %28 = load ptr, ptr %27, align 8, !tbaa !32
  %29 = getelementptr inbounds nuw %"class.url::CanonOutputT", ptr %5, i32 0, i32 3
  %30 = load i32, ptr %29, align 4, !tbaa !29
  %31 = sext i32 %30 to i64
  %32 = getelementptr inbounds i8, ptr %28, i64 %31
  store i8 %26, ptr %32, align 1, !tbaa !18
  %33 = getelementptr inbounds nuw %"class.url::CanonOutputT", ptr %5, i32 0, i32 3
  %34 = load i32, ptr %33, align 4, !tbaa !29
  %35 = add nsw i32 %34, 1
  store i32 %35, ptr %33, align 4, !tbaa !29
  br label %36

36:                                               ; preds = %25, %24, %11
  ret void
}

; Function Attrs: inlinehint mustprogress nounwind uwtable
define linkonce_odr noundef zeroext i1 @_ZN3url10IsURLSlashEt(i16 noundef zeroext %0) #2 comdat {
  %2 = alloca i16, align 2
  store i16 %0, ptr %2, align 2, !tbaa !23
  %3 = load i16, ptr %2, align 2, !tbaa !23
  %4 = zext i16 %3 to i32
  %5 = icmp eq i32 %4, 47
  br i1 %5, label %10, label %6

6:                                                ; preds = %1
  %7 = load i16, ptr %2, align 2, !tbaa !23
  %8 = zext i16 %7 to i32
  %9 = icmp eq i32 %8, 92
  br label %10

10:                                               ; preds = %6, %1
  %11 = phi i1 [ true, %1 ], [ %9, %6 ]
  ret i1 %11
}

; Function Attrs: inlinehint mustprogress nounwind uwtable
define linkonce_odr noundef i32 @_ZNK3url12CanonOutputTIcE6lengthEv(ptr noundef nonnull align 8 dereferenceable(24) %0) #2 comdat align 2 {
  %2 = alloca ptr, align 8
  store ptr %0, ptr %2, align 8, !tbaa !10
  %3 = load ptr, ptr %2, align 8
  %4 = getelementptr inbounds nuw %"class.url::CanonOutputT", ptr %3, i32 0, i32 3
  %5 = load i32, ptr %4, align 4, !tbaa !29
  ret i32 %5
}

; Function Attrs: mustprogress uwtable
define internal noundef zeroext i1 @_ZN3url12_GLOBAL__N_16DoPathIttEEbPKT_RKNS_9ComponentEPNS_12CanonOutputTIcEEPS5_(ptr noundef %0, ptr noundef nonnull align 4 dereferenceable(8) %1, ptr noundef %2, ptr noundef %3) #0 {
  %5 = alloca ptr, align 8
  %6 = alloca ptr, align 8
  %7 = alloca ptr, align 8
  %8 = alloca ptr, align 8
  %9 = alloca i8, align 1
  store ptr %0, ptr %5, align 8, !tbaa !21
  store ptr %1, ptr %6, align 8, !tbaa !8
  store ptr %2, ptr %7, align 8, !tbaa !10
  store ptr %3, ptr %8, align 8, !tbaa !8
  call void @llvm.lifetime.start.p0(i64 1, ptr %9) #6
  store i8 1, ptr %9, align 1, !tbaa !12
  %10 = load ptr, ptr %7, align 8, !tbaa !10
  %11 = call noundef i32 @_ZNK3url12CanonOutputTIcE6lengthEv(ptr noundef nonnull align 8 dereferenceable(24) %10)
  %12 = load ptr, ptr %8, align 8, !tbaa !8
  %13 = getelementptr inbounds nuw %"struct.url::Component", ptr %12, i32 0, i32 0
  store i32 %11, ptr %13, align 4, !tbaa !14
  %14 = load ptr, ptr %6, align 8, !tbaa !8
  %15 = getelementptr inbounds nuw %"struct.url::Component", ptr %14, i32 0, i32 1
  %16 = load i32, ptr %15, align 4, !tbaa !17
  %17 = icmp sgt i32 %16, 0
  br i1 %17, label %18, label %38

18:                                               ; preds = %4
  %19 = load ptr, ptr %5, align 8, !tbaa !21
  %20 = load ptr, ptr %6, align 8, !tbaa !8
  %21 = getelementptr inbounds nuw %"struct.url::Component", ptr %20, i32 0, i32 0
  %22 = load i32, ptr %21, align 4, !tbaa !14
  %23 = sext i32 %22 to i64
  %24 = getelementptr inbounds i16, ptr %19, i64 %23
  %25 = load i16, ptr %24, align 2, !tbaa !23
  %26 = call noundef zeroext i1 @_ZN3url10IsURLSlashEt(i16 noundef zeroext %25)
  br i1 %26, label %29, label %27

27:                                               ; preds = %18
  %28 = load ptr, ptr %7, align 8, !tbaa !10
  call void @_ZN3url12CanonOutputTIcE9push_backEc(ptr noundef nonnull align 8 dereferenceable(24) %28, i8 noundef signext 47)
  br label %29

29:                                               ; preds = %27, %18
  %30 = load ptr, ptr %5, align 8, !tbaa !21
  %31 = load ptr, ptr %6, align 8, !tbaa !8
  %32 = load ptr, ptr %8, align 8, !tbaa !8
  %33 = getelementptr inbounds nuw %"struct.url::Component", ptr %32, i32 0, i32 0
  %34 = load i32, ptr %33, align 4, !tbaa !14
  %35 = load ptr, ptr %7, align 8, !tbaa !10
  %36 = call noundef zeroext i1 @_ZN3url12_GLOBAL__N_113DoPartialPathIttEEbPKT_RKNS_9ComponentEiPNS_12CanonOutputTIcEE(ptr noundef %30, ptr noundef nonnull align 4 dereferenceable(8) %31, i32 noundef %34, ptr noundef %35)
  %37 = zext i1 %36 to i8
  store i8 %37, ptr %9, align 1, !tbaa !12
  br label %40

38:                                               ; preds = %4
  %39 = load ptr, ptr %7, align 8, !tbaa !10
  call void @_ZN3url12CanonOutputTIcE9push_backEc(ptr noundef nonnull align 8 dereferenceable(24) %39, i8 noundef signext 47)
  br label %40

40:                                               ; preds = %38, %29
  %41 = load ptr, ptr %7, align 8, !tbaa !10
  %42 = call noundef i32 @_ZNK3url12CanonOutputTIcE6lengthEv(ptr noundef nonnull align 8 dereferenceable(24) %41)
  %43 = load ptr, ptr %8, align 8, !tbaa !8
  %44 = getelementptr inbounds nuw %"struct.url::Component", ptr %43, i32 0, i32 0
  %45 = load i32, ptr %44, align 4, !tbaa !14
  %46 = sub nsw i32 %42, %45
  %47 = load ptr, ptr %8, align 8, !tbaa !8
  %48 = getelementptr inbounds nuw %"struct.url::Component", ptr %47, i32 0, i32 1
  store i32 %46, ptr %48, align 4, !tbaa !17
  %49 = load i8, ptr %9, align 1, !tbaa !12, !range !19, !noundef !20
  %50 = trunc i8 %49 to i1
  call void @llvm.lifetime.end.p0(i64 1, ptr %9) #6
  ret i1 %50
}

; Function Attrs: mustprogress uwtable
define noundef zeroext i1 @_ZN3url16CanonicalizePathEPKtRKNS_9ComponentEPNS_12CanonOutputTIcEEPS2_(ptr noundef %0, ptr noundef nonnull align 4 dereferenceable(8) %1, ptr noundef %2, ptr noundef %3) #0 {
  %5 = alloca ptr, align 8
  %6 = alloca ptr, align 8
  %7 = alloca ptr, align 8
  %8 = alloca ptr, align 8
  store ptr %0, ptr %5, align 8, !tbaa !21
  store ptr %1, ptr %6, align 8, !tbaa !8
  store ptr %2, ptr %7, align 8, !tbaa !10
  store ptr %3, ptr %8, align 8, !tbaa !8
  %9 = load ptr, ptr %5, align 8, !tbaa !21
  %10 = load ptr, ptr %6, align 8, !tbaa !8
  %11 = load ptr, ptr %7, align 8, !tbaa !10
  %12 = load ptr, ptr %8, align 8, !tbaa !8
  %13 = call noundef zeroext i1 @_ZN3url12_GLOBAL__N_16DoPathIttEEbPKT_RKNS_9ComponentEPNS_12CanonOutputTIcEEPS5_(ptr noundef %9, ptr noundef nonnull align 4 dereferenceable(8) %10, ptr noundef %11, ptr noundef %12)
  ret i1 %13
}