; Function Attrs: mustprogress uwtable
define noundef zeroext i1 @_ZN3url16CanonicalizePathEPKtRKNS_9ComponentEPNS_12CanonOutputTIcEEPS2_(ptr noundef %0, ptr noundef nonnull readonly align 4 captures(none) dereferenceable(8) %1, ptr noundef %2, ptr noundef captures(none) initializes((0, 4)) %3) local_unnamed_addr #0 {
  %5 = getelementptr inbounds nuw i8, ptr %2, i64 20
  %6 = load i32, ptr %5, align 4, !tbaa !3
  store i32 %6, ptr %3, align 4, !tbaa !10
  %7 = getelementptr inbounds nuw i8, ptr %1, i64 4
  %8 = load i32, ptr %7, align 4, !tbaa !12
  %9 = icmp sgt i32 %8, 0
  br i1 %9, label %10, label %34

10:                                               ; preds = %4
  %11 = load i32, ptr %1, align 4, !tbaa !10
  %12 = sext i32 %11 to i64
  %13 = getelementptr inbounds i16, ptr %0, i64 %12
  %14 = load i16, ptr %13, align 2, !tbaa !20
  switch i16 %14, label %15 [
    i16 92, label %_ZN3url12CanonOutputTIcE9push_backEc.exit.i
    i16 47, label %_ZN3url12CanonOutputTIcE9push_backEc.exit.i
  ]

15:                                               ; preds = %10
  %16 = getelementptr inbounds nuw i8, ptr %2, i64 16
  %17 = load i32, ptr %16, align 8, !tbaa !14
  %18 = icmp slt i32 %6, %17
  br i1 %18, label %_ZN3url12CanonOutputTIcE4GrowEi.exit.sink.split.i.i, label %select.unfold.i.preheader.i.i

select.unfold.i.preheader.i.i:                    ; preds = %15
  %19 = icmp eq i32 %17, 0
  %spec.select = select i1 %19, i32 16, i32 %17
  br label %select.unfold.i.i.i

select.unfold.i.i.i:                              ; preds = %select.unfold.i.preheader.i.i, %21
  %.0.i.i.i = phi i32 [ %22, %21 ], [ %spec.select, %select.unfold.i.preheader.i.i ]
  %20 = icmp slt i32 %.0.i.i.i, 1073741824
  br i1 %20, label %21, label %_ZN3url12CanonOutputTIcE9push_backEc.exit.i

21:                                               ; preds = %select.unfold.i.i.i
  %22 = shl nsw i32 %.0.i.i.i, 1
  %.not.i.i = icmp sgt i32 %22, %17
  br i1 %.not.i.i, label %23, label %select.unfold.i.i.i, !llvm.loop !15

23:                                               ; preds = %21
  %24 = load ptr, ptr %2, align 8, !tbaa !17
  %25 = getelementptr inbounds nuw i8, ptr %24, i64 16
  %26 = load ptr, ptr %25, align 8
  tail call void %26(ptr noundef nonnull align 8 dereferenceable(24) %2, i32 noundef %22)
  %27 = load i32, ptr %5, align 4, !tbaa !3
  br label %_ZN3url12CanonOutputTIcE4GrowEi.exit.sink.split.i.i

_ZN3url12CanonOutputTIcE4GrowEi.exit.sink.split.i.i: ; preds = %23, %15
  %.sink.i.i = phi i32 [ %27, %23 ], [ %6, %15 ]
  %.sink3.in.i.i = getelementptr inbounds nuw i8, ptr %2, i64 8
  %.sink3.i.i = load ptr, ptr %.sink3.in.i.i, align 8, !tbaa !19
  %28 = sext i32 %.sink.i.i to i64
  %29 = getelementptr inbounds i8, ptr %.sink3.i.i, i64 %28
  store i8 47, ptr %29, align 1, !tbaa !13
  %30 = load i32, ptr %5, align 4, !tbaa !3
  %31 = add nsw i32 %30, 1
  store i32 %31, ptr %5, align 4, !tbaa !3
  %.pre.i = load i32, ptr %3, align 4, !tbaa !10
  %.val.pre.i = load i32, ptr %1, align 4, !tbaa !10
  %.val14.pre.i = load i32, ptr %7, align 4, !tbaa !12
  br label %_ZN3url12CanonOutputTIcE9push_backEc.exit.i

_ZN3url12CanonOutputTIcE9push_backEc.exit.i:      ; preds = %select.unfold.i.i.i, %_ZN3url12CanonOutputTIcE4GrowEi.exit.sink.split.i.i, %10, %10
  %.val14.i = phi i32 [ %8, %10 ], [ %8, %10 ], [ %.val14.pre.i, %_ZN3url12CanonOutputTIcE4GrowEi.exit.sink.split.i.i ], [ %8, %select.unfold.i.i.i ]
  %.val.i = phi i32 [ %11, %10 ], [ %11, %10 ], [ %.val.pre.i, %_ZN3url12CanonOutputTIcE4GrowEi.exit.sink.split.i.i ], [ %11, %select.unfold.i.i.i ]
  %32 = phi i32 [ %6, %10 ], [ %6, %10 ], [ %.pre.i, %_ZN3url12CanonOutputTIcE4GrowEi.exit.sink.split.i.i ], [ %6, %select.unfold.i.i.i ]
  %33 = tail call fastcc noundef zeroext i1 @_ZN3url12_GLOBAL__N_113DoPartialPathIttEEbPKT_RKNS_9ComponentEiPNS_12CanonOutputTIcEE(ptr noundef %0, i32 %.val.i, i32 %.val14.i, i32 noundef %32, ptr noundef nonnull %2)
  %.pre31.i = load i32, ptr %5, align 4, !tbaa !3
  br label %_ZN3url12_GLOBAL__N_16DoPathIttEEbPKT_RKNS_9ComponentEPNS_12CanonOutputTIcEEPS5_.exit

34:                                               ; preds = %4
  %35 = getelementptr inbounds nuw i8, ptr %2, i64 16
  %36 = load i32, ptr %35, align 8, !tbaa !14
  %37 = icmp slt i32 %6, %36
  br i1 %37, label %_ZN3url12CanonOutputTIcE4GrowEi.exit.sink.split.i20.i, label %select.unfold.i.preheader.i15.i

select.unfold.i.preheader.i15.i:                  ; preds = %34
  %38 = icmp eq i32 %36, 0
  %spec.select10 = select i1 %38, i32 16, i32 %36
  br label %select.unfold.i.i17.i

select.unfold.i.i17.i:                            ; preds = %select.unfold.i.preheader.i15.i, %40
  %.0.i.i18.i = phi i32 [ %41, %40 ], [ %spec.select10, %select.unfold.i.preheader.i15.i ]
  %39 = icmp slt i32 %.0.i.i18.i, 1073741824
  br i1 %39, label %40, label %_ZN3url12_GLOBAL__N_16DoPathIttEEbPKT_RKNS_9ComponentEPNS_12CanonOutputTIcEEPS5_.exit

40:                                               ; preds = %select.unfold.i.i17.i
  %41 = shl nsw i32 %.0.i.i18.i, 1
  %.not.i19.i = icmp sgt i32 %41, %36
  br i1 %.not.i19.i, label %42, label %select.unfold.i.i17.i, !llvm.loop !15

42:                                               ; preds = %40
  %43 = load ptr, ptr %2, align 8, !tbaa !17
  %44 = getelementptr inbounds nuw i8, ptr %43, i64 16
  %45 = load ptr, ptr %44, align 8
  tail call void %45(ptr noundef nonnull align 8 dereferenceable(24) %2, i32 noundef %41)
  %46 = load i32, ptr %5, align 4, !tbaa !3
  br label %_ZN3url12CanonOutputTIcE4GrowEi.exit.sink.split.i20.i

_ZN3url12CanonOutputTIcE4GrowEi.exit.sink.split.i20.i: ; preds = %42, %34
  %.sink.i21.i = phi i32 [ %46, %42 ], [ %6, %34 ]
  %.sink3.in.i22.i = getelementptr inbounds nuw i8, ptr %2, i64 8
  %.sink3.i23.i = load ptr, ptr %.sink3.in.i22.i, align 8, !tbaa !19
  %47 = sext i32 %.sink.i21.i to i64
  %48 = getelementptr inbounds i8, ptr %.sink3.i23.i, i64 %47
  store i8 47, ptr %48, align 1, !tbaa !13
  %49 = load i32, ptr %5, align 4, !tbaa !3
  %50 = add nsw i32 %49, 1
  store i32 %50, ptr %5, align 4, !tbaa !3
  br label %_ZN3url12_GLOBAL__N_16DoPathIttEEbPKT_RKNS_9ComponentEPNS_12CanonOutputTIcEEPS5_.exit

_ZN3url12_GLOBAL__N_16DoPathIttEEbPKT_RKNS_9ComponentEPNS_12CanonOutputTIcEEPS5_.exit: ; preds = %select.unfold.i.i17.i, %_ZN3url12CanonOutputTIcE9push_backEc.exit.i, %_ZN3url12CanonOutputTIcE4GrowEi.exit.sink.split.i20.i
  %51 = phi i32 [ %.pre31.i, %_ZN3url12CanonOutputTIcE9push_backEc.exit.i ], [ %50, %_ZN3url12CanonOutputTIcE4GrowEi.exit.sink.split.i20.i ], [ %6, %select.unfold.i.i17.i ]
  %.0.i = phi i1 [ %33, %_ZN3url12CanonOutputTIcE9push_backEc.exit.i ], [ true, %_ZN3url12CanonOutputTIcE4GrowEi.exit.sink.split.i20.i ], [ true, %select.unfold.i.i17.i ]
  %52 = load i32, ptr %3, align 4, !tbaa !10
  %53 = sub nsw i32 %51, %52
  %54 = getelementptr inbounds nuw i8, ptr %3, i64 4
  store i32 %53, ptr %54, align 4, !tbaa !12
  ret i1 %.0.i
}